; Function Attrs: nounwind uwtable
define hidden void @zim_ArrayObject___construct(ptr nocapture noundef readonly %0, ptr nocapture readnone %1) #0 {
  %3 = alloca ptr, align 8
  %4 = alloca i64, align 8
  %5 = alloca ptr, align 8
  %6 = getelementptr inbounds i8, ptr %0, i64 32
  store i64 0, ptr %4, align 8
  %7 = load ptr, ptr @spl_ce_ArrayIterator, align 8
  store ptr %7, ptr %5, align 8
  %8 = getelementptr inbounds i8, ptr %0, i64 44
  %9 = load i32, ptr %8, align 4
  %10 = icmp eq i32 %9, 0
  br i1 %10, label %31, label %11

11:                                               ; preds = %2
  %12 = call i32 (i32, ptr, ...) @zend_parse_parameters(i32 noundef %9, ptr noundef nonnull @.str.3, ptr noundef nonnull %3, ptr noundef nonnull %4, ptr noundef nonnull %5) #11
  %13 = icmp eq i32 %12, -1
  br i1 %13, label %14, label %17

14:                                               ; preds = %11
  %15 = load ptr, ptr getelementptr inbounds (%struct._zend_executor_globals, ptr @executor_globals, i64 0, i32 50), align 8
  %16 = icmp ne ptr %15, null
  call void @llvm.assume(i1 %16)
  br label %31

17:                                               ; preds = %11
  %18 = load ptr, ptr %6, align 8
  %19 = getelementptr inbounds i8, ptr %18, i64 -88
  %20 = load i32, ptr %8, align 4
  %21 = icmp ugt i32 %20, 2
  br i1 %21, label %22, label %25

22:                                               ; preds = %17
  %23 = load ptr, ptr %5, align 8
  %24 = getelementptr inbounds i8, ptr %18, i64 -8
  store ptr %23, ptr %24, align 8
  %.pre = load i32, ptr %8, align 4
  br label %25

25:                                               ; preds = %22, %17
  %26 = phi i32 [ %.pre, %22 ], [ %20, %17 ]
  %27 = load i64, ptr %4, align 8
  %28 = and i64 %27, 65535
  store i64 %28, ptr %4, align 8
  %29 = load ptr, ptr %3, align 8
  %30 = icmp eq i32 %26, 1
  call fastcc void @spl_array_set_array(ptr noundef nonnull %6, ptr noundef nonnull %19, ptr noundef %29, i64 noundef %28, i1 noundef zeroext %30)
  br label %31

31:                                               ; preds = %2, %25, %14
  ret void
}